target datalayout = "e-m:e-p270:32:32-p271:32:32-p272:64:64-i64:64-i128:128-f80:128-n8:16:32:64-S128"
target triple = "x86_64-pc-linux-gnu"

%"class.std::__cxx11::basic_string" = type { %"struct.std::__cxx11::basic_string<char>::_Alloc_hider", i64, %union.anon }
%"struct.std::__cxx11::basic_string<char>::_Alloc_hider" = type { ptr }
%union.anon = type { i64, [8 x i8] }
%"class.gmx::ColvarProxyGromacs" = type { %class.colvarproxy, %struct.t_atoms, i32, %struct.t_pbc, ptr, i8, [7 x i8], %"class.gmx::ThreeFry2x64Fast", %"class.gmx::TabulatedNormalDistribution" }
%class.colvarproxy = type { %class.colvarproxy_system, %class.colvarproxy_atoms.base, %class.colvarproxy_atom_groups, %class.colvarproxy_volmaps, %class.colvarproxy_smp, %class.colvarproxy_replicas, %class.colvarproxy_script.base, %class.colvarproxy_tcl, %class.colvarproxy_io, ptr, i8, %"class.std::__cxx11::basic_string", i8, i8, i8, i32, i64, %"class.std::__cxx11::basic_string", ptr }
%class.colvarproxy_system = type { ptr, %"class.std::__cxx11::basic_string", double, double, i8, double, double, double, double, double, i8, i32, %"class.colvarmodule::rvector", %"class.colvarmodule::rvector", %"class.colvarmodule::rvector", %"class.colvarmodule::rvector", %"class.colvarmodule::rvector", %"class.colvarmodule::rvector" }
%"class.colvarmodule::rvector" = type { double, double, double }
%class.colvarproxy_atoms.base = type <{ ptr, %"class.std::vector", %"class.std::vector.3", %"class.std::vector.8", %"class.std::vector.8", %"class.std::vector.13", %"class.std::vector.13", %"class.std::vector.13", double, double, i32, i8, i8, i8 }>
%"class.std::vector" = type { %"struct.std::_Vector_base" }
%"struct.std::_Vector_base" = type { %"struct.std::_Vector_base<int, std::allocator<int>>::_Vector_impl" }
%"struct.std::_Vector_base<int, std::allocator<int>>::_Vector_impl" = type { %"struct.std::_Vector_base<int, std::allocator<int>>::_Vector_impl_data" }
%"struct.std::_Vector_base<int, std::allocator<int>>::_Vector_impl_data" = type { ptr, ptr, ptr }
%"class.std::vector.3" = type { %"struct.std::_Vector_base.4" }
%"struct.std::_Vector_base.4" = type { %"struct.std::_Vector_base<unsigned long, std::allocator<unsigned long>>::_Vector_impl" }
%"struct.std::_Vector_base<unsigned long, std::allocator<unsigned long>>::_Vector_impl" = type { %"struct.std::_Vector_base<unsigned long, std::allocator<unsigned long>>::_Vector_impl_data" }
%"struct.std::_Vector_base<unsigned long, std::allocator<unsigned long>>::_Vector_impl_data" = type { ptr, ptr, ptr }
%"class.std::vector.8" = type { %"struct.std::_Vector_base.9" }
%"struct.std::_Vector_base.9" = type { %"struct.std::_Vector_base<double, std::allocator<double>>::_Vector_impl" }
%"struct.std::_Vector_base<double, std::allocator<double>>::_Vector_impl" = type { %"struct.std::_Vector_base<double, std::allocator<double>>::_Vector_impl_data" }
%"struct.std::_Vector_base<double, std::allocator<double>>::_Vector_impl_data" = type { ptr, ptr, ptr }
%"class.std::vector.13" = type { %"struct.std::_Vector_base.14" }
%"struct.std::_Vector_base.14" = type { %"struct.std::_Vector_base<colvarmodule::rvector, std::allocator<colvarmodule::rvector>>::_Vector_impl" }
%"struct.std::_Vector_base<colvarmodule::rvector, std::allocator<colvarmodule::rvector>>::_Vector_impl" = type { %"struct.std::_Vector_base<colvarmodule::rvector, std::allocator<colvarmodule::rvector>>::_Vector_impl_data" }
%"struct.std::_Vector_base<colvarmodule::rvector, std::allocator<colvarmodule::rvector>>::_Vector_impl_data" = type { ptr, ptr, ptr }
%class.colvarproxy_atom_groups = type { ptr, %"class.std::vector", %"class.std::vector.3", %"class.std::vector.8", %"class.std::vector.8", %"class.std::vector.13", %"class.std::vector.13", %"class.std::vector.13", double, double }
%class.colvarproxy_volmaps = type { ptr, %"class.std::vector", %"class.std::vector.3", %"class.std::vector.8", %"class.std::vector.8", double, double }
%class.colvarproxy_smp = type { ptr, i8, ptr }
%class.colvarproxy_replicas = type { ptr }
%class.colvarproxy_script.base = type <{ ptr, ptr, i8 }>
%class.colvarproxy_tcl = type { ptr, ptr }
%class.colvarproxy_io = type { ptr, %"class.std::__cxx11::basic_string", %"class.std::__cxx11::basic_string", %"class.std::__cxx11::basic_string", i32, %"class.std::map", ptr, %"class.std::map.21", ptr }
%"class.std::map" = type { %"class.std::_Rb_tree" }
%"class.std::_Rb_tree" = type { %"struct.std::_Rb_tree<std::__cxx11::basic_string<char>, std::pair<const std::__cxx11::basic_string<char>, std::basic_istream<char> *>, std::_Select1st<std::pair<const std::__cxx11::basic_string<char>, std::basic_istream<char> *>>, std::less<std::__cxx11::basic_string<char>>>::_Rb_tree_impl" }
%"struct.std::_Rb_tree<std::__cxx11::basic_string<char>, std::pair<const std::__cxx11::basic_string<char>, std::basic_istream<char> *>, std::_Select1st<std::pair<const std::__cxx11::basic_string<char>, std::basic_istream<char> *>>, std::less<std::__cxx11::basic_string<char>>>::_Rb_tree_impl" = type { %"struct.std::_Rb_tree_key_compare", %"struct.std::_Rb_tree_header" }
%"struct.std::_Rb_tree_key_compare" = type { %"struct.std::less" }
%"struct.std::less" = type { i8 }
%"struct.std::_Rb_tree_header" = type { %"struct.std::_Rb_tree_node_base", i64 }
%"struct.std::_Rb_tree_node_base" = type { i32, ptr, ptr, ptr }
%"class.std::map.21" = type { %"class.std::_Rb_tree.22" }
%"class.std::_Rb_tree.22" = type { %"struct.std::_Rb_tree<std::__cxx11::basic_string<char>, std::pair<const std::__cxx11::basic_string<char>, std::basic_ostream<char> *>, std::_Select1st<std::pair<const std::__cxx11::basic_string<char>, std::basic_ostream<char> *>>, std::less<std::__cxx11::basic_string<char>>>::_Rb_tree_impl" }
%"struct.std::_Rb_tree<std::__cxx11::basic_string<char>, std::pair<const std::__cxx11::basic_string<char>, std::basic_ostream<char> *>, std::_Select1st<std::pair<const std::__cxx11::basic_string<char>, std::basic_ostream<char> *>>, std::less<std::__cxx11::basic_string<char>>>::_Rb_tree_impl" = type { %"struct.std::_Rb_tree_key_compare", %"struct.std::_Rb_tree_header" }
%struct.t_atoms = type { i32, ptr, ptr, ptr, ptr, i32, ptr, ptr, i8, i8, i8, i8, i8 }
%struct.t_pbc = type { i32, i32, i32, i32, [3 x [3 x float]], [3 x float], [3 x float], [3 x float], float, i32, [12 x [3 x i32]], [12 x [3 x float]] }
%"class.gmx::ThreeFry2x64Fast" = type { %"class.gmx::ThreeFry2x64General.base", [4 x i8] }
%"class.gmx::ThreeFry2x64General.base" = type <{ %"struct.std::array", %"struct.std::array", %"struct.std::array", i32 }>
%"struct.std::array" = type { [2 x i64] }
%"class.gmx::TabulatedNormalDistribution" = type <{ %"class.gmx::TabulatedNormalDistribution<>::param_type", i64, i32, [4 x i8] }>
%"class.gmx::TabulatedNormalDistribution<>::param_type" = type { float, float }

; Function Attrs: mustprogress nounwind uwtable
define linkonce_odr void @_ZN12colvarmodule7rvector3setEddd(ptr noundef nonnull align 8 dereferenceable(24) %0, double noundef %1, double noundef %2, double noundef %3) #0 comdat align 2 {
  %5 = alloca ptr, align 8
  %6 = alloca double, align 8
  %7 = alloca double, align 8
  %8 = alloca double, align 8
  store ptr %0, ptr %5, align 8
  store double %1, ptr %6, align 8
  store double %2, ptr %7, align 8
  store double %3, ptr %8, align 8
  %9 = load ptr, ptr %5, align 8
  %10 = load double, ptr %6, align 8
  %11 = getelementptr inbounds %"class.colvarmodule::rvector", ptr %9, i32 0, i32 0
  store double %10, ptr %11, align 8
  %12 = load double, ptr %7, align 8
  %13 = getelementptr inbounds %"class.colvarmodule::rvector", ptr %9, i32 0, i32 1
  store double %12, ptr %13, align 8
  %14 = load double, ptr %8, align 8
  %15 = getelementptr inbounds %"class.colvarmodule::rvector", ptr %9, i32 0, i32 2
  store double %14, ptr %15, align 8
  ret void
}

; Function Attrs: mustprogress uwtable
define linkonce_odr void @_ZN12colvarmodule7rvectorC2Eddd(ptr noundef nonnull align 8 dereferenceable(24) %0, double noundef %1, double noundef %2, double noundef %3) unnamed_addr #1 comdat align 2 {
  %5 = alloca ptr, align 8
  %6 = alloca double, align 8
  %7 = alloca double, align 8
  %8 = alloca double, align 8
  store ptr %0, ptr %5, align 8
  store double %1, ptr %6, align 8
  store double %2, ptr %7, align 8
  store double %3, ptr %8, align 8
  %9 = load ptr, ptr %5, align 8
  %10 = load double, ptr %6, align 8
  %11 = load double, ptr %7, align 8
  %12 = load double, ptr %8, align 8
  call void @_ZN12colvarmodule7rvector3setEddd(ptr noundef nonnull align 8 dereferenceable(24) %9, double noundef %10, double noundef %11, double noundef %12)
  ret void
}

; Function Attrs: mustprogress uwtable
define void @_ZNK3gmx18ColvarProxyGromacs17position_distanceERKN12colvarmodule7rvectorES4_(ptr dead_on_unwind noalias writable sret(%"class.colvarmodule::rvector") align 8 %0, ptr noundef nonnull align 8 dereferenceable(1728) %1, ptr noundef nonnull align 8 dereferenceable(24) %2, ptr noundef nonnull align 8 dereferenceable(24) %3) unnamed_addr #1 align 2 {
  %5 = alloca ptr, align 8
  %6 = alloca ptr, align 8
  %7 = alloca ptr, align 8
  %8 = alloca [3 x float], align 4
  %9 = alloca [3 x float], align 4
  %10 = alloca [3 x float], align 4
  store ptr %1, ptr %5, align 8
  store ptr %2, ptr %6, align 8
  store ptr %3, ptr %7, align 8
  %11 = load ptr, ptr %5, align 8
  %12 = load ptr, ptr %6, align 8
  %13 = getelementptr inbounds %"class.colvarmodule::rvector", ptr %12, i32 0, i32 0
  %14 = load double, ptr %13, align 8
  %15 = fptrunc double %14 to float
  %16 = getelementptr inbounds [3 x float], ptr %8, i64 0, i64 0
  store float %15, ptr %16, align 4
  %17 = load ptr, ptr %6, align 8
  %18 = getelementptr inbounds %"class.colvarmodule::rvector", ptr %17, i32 0, i32 1
  %19 = load double, ptr %18, align 8
  %20 = fptrunc double %19 to float
  %21 = getelementptr inbounds [3 x float], ptr %8, i64 0, i64 1
  store float %20, ptr %21, align 4
  %22 = load ptr, ptr %6, align 8
  %23 = getelementptr inbounds %"class.colvarmodule::rvector", ptr %22, i32 0, i32 2
  %24 = load double, ptr %23, align 8
  %25 = fptrunc double %24 to float
  %26 = getelementptr inbounds [3 x float], ptr %8, i64 0, i64 2
  store float %25, ptr %26, align 4
  %27 = load ptr, ptr %7, align 8
  %28 = getelementptr inbounds %"class.colvarmodule::rvector", ptr %27, i32 0, i32 0
  %29 = load double, ptr %28, align 8
  %30 = fptrunc double %29 to float
  %31 = getelementptr inbounds [3 x float], ptr %9, i64 0, i64 0
  store float %30, ptr %31, align 4
  %32 = load ptr, ptr %7, align 8
  %33 = getelementptr inbounds %"class.colvarmodule::rvector", ptr %32, i32 0, i32 1
  %34 = load double, ptr %33, align 8
  %35 = fptrunc double %34 to float
  %36 = getelementptr inbounds [3 x float], ptr %9, i64 0, i64 1
  store float %35, ptr %36, align 4
  %37 = load ptr, ptr %7, align 8
  %38 = getelementptr inbounds %"class.colvarmodule::rvector", ptr %37, i32 0, i32 2
  %39 = load double, ptr %38, align 8
  %40 = fptrunc double %39 to float
  %41 = getelementptr inbounds [3 x float], ptr %9, i64 0, i64 2
  store float %40, ptr %41, align 4
  %42 = getelementptr inbounds %"class.gmx::ColvarProxyGromacs", ptr %11, i32 0, i32 3
  %43 = getelementptr inbounds [3 x float], ptr %9, i64 0, i64 0
  %44 = getelementptr inbounds [3 x float], ptr %8, i64 0, i64 0
  %45 = getelementptr inbounds [3 x float], ptr %10, i64 0, i64 0
  call void @_Z6pbc_dxPK5t_pbcPKfS3_Pf(ptr noundef %42, ptr noundef %43, ptr noundef %44, ptr noundef %45)
  %46 = getelementptr inbounds [3 x float], ptr %10, i64 0, i64 0
  %47 = load float, ptr %46, align 4
  %48 = fpext float %47 to double
  %49 = getelementptr inbounds [3 x float], ptr %10, i64 0, i64 1
  %50 = load float, ptr %49, align 4
  %51 = fpext float %50 to double
  %52 = getelementptr inbounds [3 x float], ptr %10, i64 0, i64 2
  %53 = load float, ptr %52, align 4
  %54 = fpext float %53 to double
  call void @_ZN12colvarmodule7rvectorC2Eddd(ptr noundef nonnull align 8 dereferenceable(24) %0, double noundef %48, double noundef %51, double noundef %54)
  ret void
}