; Function Attrs: mustprogress uwtable
define void @_ZNK3gmx18ColvarProxyGromacs17position_distanceERKN12colvarmodule7rvectorES4_(ptr dead_on_unwind noalias nocapture writable writeonly sret(%"class.colvarmodule::rvector") align 8 %0, ptr noundef nonnull align 8 dereferenceable(1728) %1, ptr nocapture noundef nonnull readonly align 8 dereferenceable(24) %2, ptr nocapture noundef nonnull readonly align 8 dereferenceable(24) %3) unnamed_addr #1 align 2 {
  %5 = alloca [3 x float], align 8
  %6 = alloca [3 x float], align 8
  %7 = alloca [3 x float], align 8
  %8 = load <2 x double>, ptr %2, align 8
  %9 = fptrunc <2 x double> %8 to <2 x float>
  store <2 x float> %9, ptr %5, align 8
  %10 = getelementptr inbounds i8, ptr %2, i64 16
  %11 = load double, ptr %10, align 8
  %12 = fptrunc double %11 to float
  %13 = getelementptr inbounds i8, ptr %5, i64 8
  store float %12, ptr %13, align 8
  %14 = load <2 x double>, ptr %3, align 8
  %15 = fptrunc <2 x double> %14 to <2 x float>
  store <2 x float> %15, ptr %6, align 8
  %16 = getelementptr inbounds i8, ptr %3, i64 16
  %17 = load double, ptr %16, align 8
  %18 = fptrunc double %17 to float
  %19 = getelementptr inbounds i8, ptr %6, i64 8
  store float %18, ptr %19, align 8
  %20 = getelementptr inbounds i8, ptr %1, i64 1244
  call void @_Z6pbc_dxPK5t_pbcPKfS3_Pf(ptr noundef nonnull %20, ptr noundef nonnull %6, ptr noundef nonnull %5, ptr noundef nonnull %7)
  %21 = getelementptr inbounds i8, ptr %7, i64 8
  %22 = load float, ptr %21, align 8
  %23 = fpext float %22 to double
  %24 = load <2 x float>, ptr %7, align 8
  %25 = fpext <2 x float> %24 to <2 x double>
  store <2 x double> %25, ptr %0, align 8
  %26 = getelementptr inbounds i8, ptr %0, i64 16
  store double %23, ptr %26, align 8
  ret void
}